; Function Attrs: mustprogress uwtable
define hidden noundef ptr @_Z16mk_nla2bv_tacticR11ast_managerRK10params_ref(ptr nocapture noundef nonnull readnone align 8 dereferenceable(976) %m, ptr noundef nonnull align 8 dereferenceable(8) %p) local_unnamed_addr #3 personality ptr @__gxx_personality_v0 {
entry:
  %call = tail call noalias noundef ptr @_ZN6memory8allocateEm(i64 noundef 32)
  %m_ref_count.i.i = getelementptr inbounds i8, ptr %call, i64 8
  store i32 0, ptr %m_ref_count.i.i, align 8
  store ptr getelementptr inbounds ({ [25 x ptr] }, ptr @_ZTV13nla2bv_tactic, i64 0, i32 0, i64 2), ptr %call, align 8
  %m_params.i = getelementptr inbounds i8, ptr %call, i64 16
  tail call void @_ZN10params_refC1ERKS_(ptr noundef nonnull align 8 dereferenceable(8) %m_params.i, ptr noundef nonnull align 8 dereferenceable(8) %p)
  %m_imp.i = getelementptr inbounds i8, ptr %call, i64 24
  store ptr null, ptr %m_imp.i, align 8
  ret ptr %call
}